; Function Attrs: mustprogress uwtable
define internal fastcc noundef ptr @_ZN17duckdb_libpgqueryL19makeStringConstCastEPciPNS_10PGTypeNameE(ptr noundef %0, i32 noundef %1, ptr noundef %2) unnamed_addr #0 {
  %4 = tail call noundef ptr @_ZN17duckdb_libpgquery7newNodeEmNS_9PGNodeTagE(i64 noundef 32, i32 noundef 355)
  %5 = getelementptr inbounds nuw i8, ptr %4, i64 8
  store i32 218, ptr %5, align 8, !tbaa !146
  %6 = getelementptr inbounds nuw i8, ptr %4, i64 16
  store ptr %0, ptr %6, align 8, !tbaa !9
  %7 = getelementptr inbounds nuw i8, ptr %4, i64 24
  store i32 %1, ptr %7, align 8, !tbaa !149
  %8 = tail call noundef ptr @_ZN17duckdb_libpgquery7newNodeEmNS_9PGNodeTagE(i64 noundef 32, i32 noundef 363)
  %9 = getelementptr inbounds nuw i8, ptr %8, i64 8
  store ptr %4, ptr %9, align 8, !tbaa !396
  %10 = getelementptr inbounds nuw i8, ptr %8, i64 16
  store ptr %2, ptr %10, align 8, !tbaa !398
  %11 = getelementptr inbounds nuw i8, ptr %8, i64 24
  store i32 0, ptr %11, align 8, !tbaa !399
  %12 = getelementptr inbounds nuw i8, ptr %8, i64 28
  store i32 -1, ptr %12, align 4, !tbaa !400
  ret ptr %8
}